target datalayout = "e-m:e-p270:32:32-p271:32:32-p272:64:64-i64:64-i128:128-f80:128-n8:16:32:64-S128"
target triple = "x86_64-pc-linux-gnu"

%"class.sat::literal" = type { i32 }
%"class.sat::asymm_branch" = type { ptr, %class.params_ref, i64, %class.random_gen, i32, i32, i8, i32, i32, i8, i8, i64, i32, i32, i32, %class.svector, %class.svector, %class.svector.0, %class.svector.0, %class.svector, %class.svector }
%class.params_ref = type { ptr }
%class.random_gen = type { i32 }
%class.svector.0 = type { %class.vector.1 }
%class.vector.1 = type { ptr }
%class.svector = type { %class.vector }
%class.vector = type { ptr }
%"class.sat::solver" = type { %"class.sat::solver_core", i8, [7 x i8], %"struct.sat::config", %"struct.sat::stats", %class.scoped_ptr, %class.scoped_ptr.2, ptr, %"class.sat::drat", [2 x %"class.sat::clause_allocator"], i8, %class.random_gen, %"class.sat::cleaner", %class.svector.15, %"class.sat::model_converter", i8, %"class.sat::simplifier", %"class.sat::scc", %"class.sat::asymm_branch", %"class.sat::probing", i8, [7 x i8], %"class.sat::mus", i8, i8, [6 x i8], %"class.sat::justification", %"class.sat::literal", %class.ptr_vector.24, %class.ptr_vector.24, i32, %class.svector.8, %class.svector.8, %class.svector.8, %class.svector.8, %class.vector.38, %class.svector.15, %class.svector.39, %class.svector.18, %class.svector.18, %class.svector.18, %class.svector.18, %class.svector.18, %class.svector.8, %class.svector.8, i32, %class.svector, %class.svector.8, i32, %class.svector.41, %class.svector.41, %class.svector.41, %class.svector.41, %class.svector.41, i32, double, %class.svector.18, %class.svector.18, %class.svector.18, i8, %class.svector.28, i32, i32, i32, i32, i32, i32, %"struct.sat::backoff", i32, i32, %"struct.sat::backoff", %"struct.sat::backoff", %class.var_queue, i32, i32, i32, %class.ema, %class.ema, %class.ema, %class.ema, %class.ema, %class.svector, %class.svector.30, %"class.std::__cxx11::basic_string", i8, i8, %class.visit_helper, %class.svector.43, %class.scoped_limit_trail, %class.stopwatch, %class.params_ref, %"struct.sat::no_drat_params", %class.scoped_ptr.45, %class.svector, %"class.sat::literal_set", %"class.sat::literal_set", %class.svector, i32, i32, i32, i32, i8, ptr, ptr, %class.statistics, i32, i32, i32, i32, i8, i32, i32, i32, i32, i32, i32, i32, double, i32, double, i8, i8, %class.svector, i8, %class.svector.41, i32, i32, i32, %class.svector, %class.svector, %class.svector.28, %class.svector.8, %class.approx_set_tpl, %class.svector, %class.svector, %class.vector.14, %class.svector, %class.svector.36, %class.u_map, %class.svector }
%"class.sat::solver_core" = type { ptr, ptr }
%"struct.sat::config" = type <{ i64, i32, i32, i32, i8, [3 x i8], i32, i32, double, i32, i8, [3 x i8], i32, i8, [3 x i8], i32, [4 x i8], double, double, i32, i32, double, double, i32, [4 x i8], %class.symbol, double, i32, i32, i8, [3 x i8], i32, i32, i8, [3 x i8], i32, i8, [3 x i8], i32, i8, [3 x i8], i32, i8, i8, [2 x i8], i32, i8, i8, i8, i8, i8, i8, i8, i8, i32, i8, i8, i8, i8, i32, double, i32, [4 x i8], double, double, double, double, i32, i8, i8, [2 x i8], double, i8, i8, [2 x i8], i32, double, i32, i32, i32, i32, i32, i32, i32, i32, i8, i8, i8, i8, i32, i32, i8, i8, i8, i8, i8, i8, i8, [5 x i8], %class.symbol, i8, i8, i8, i8, i8, i8, [2 x i8], i32, i32, i32, i8, [3 x i8], double, double, double, double, double, i8, [7 x i8] }>
%class.symbol = type { ptr }
%"struct.sat::stats" = type { i32, i32, i32, i32, i32, i32, i32, i32, i32, i32, i32, i32, i32, i32, i32, i32, i32, i32, i32, i32, i32 }
%class.scoped_ptr = type { ptr }
%class.scoped_ptr.2 = type { ptr }
%"class.sat::drat" = type { ptr, %class.svector.3, ptr, %"class.sat::clause_allocator", ptr, ptr, %class.svector.10, %class.svector.12, %class.vector.14, %class.svector.15, i8, i8, i8, i8, i8, %"struct.sat::drat::stats" }
%class.svector.3 = type { %class.vector.4 }
%class.vector.4 = type { ptr }
%"class.sat::clause_allocator" = type { %class.sat_allocator, %class.id_gen }
%class.sat_allocator = type { ptr, i64, %class.ptr_vector, ptr, [65 x %class.ptr_vector.6] }
%class.ptr_vector = type { %class.vector.5 }
%class.vector.5 = type { ptr }
%class.ptr_vector.6 = type { %class.vector.7 }
%class.vector.7 = type { ptr }
%class.id_gen = type { i32, %class.svector.8 }
%class.svector.10 = type { %class.vector.11 }
%class.vector.11 = type { ptr }
%class.svector.12 = type { %class.vector.13 }
%class.vector.13 = type { ptr }
%"struct.sat::drat::stats" = type { i32, i32, i32, i32 }
%"class.sat::cleaner" = type { ptr, i32, i32, i32, i32 }
%"class.sat::model_converter" = type { %class.vector.17, i32, %class.svector.18, ptr, %class.svector.20 }
%class.vector.17 = type { ptr }
%class.svector.20 = type { %class.vector.21 }
%class.vector.21 = type { ptr }
%"class.sat::simplifier" = type { ptr, i32, %"class.sat::use_list", %"class.sat::ext_use_list", %"class.sat::clause_set", %class.svector.26, i32, %class.tracked_uint_set, i8, %"class.sat::tmp_clause", %class.svector.28, i32, i32, i8, i8, i8, i8, i32, i8, i8, i32, i8, i32, i8, i8, i32, i32, i32, i32, i32, i32, i32, i32, i32, i32, i8, i32, i8, i8, i32, i32, i32, i32, i32, i32, i32, i32, i32, i32, i32, i8, i32, %class.ptr_vector.24, %class.svector, %class.svector.30, %class.svector.30, %class.svector }
%"class.sat::use_list" = type { %class.vector.22 }
%class.vector.22 = type { ptr }
%"class.sat::ext_use_list" = type { %class.vector.23 }
%class.vector.23 = type { ptr }
%"class.sat::clause_set" = type { %class.svector.8, %class.ptr_vector.24 }
%class.svector.26 = type { %class.vector.27 }
%class.vector.27 = type { ptr }
%class.tracked_uint_set = type { %class.svector.28, %class.svector.8 }
%"class.sat::tmp_clause" = type { ptr }
%"class.sat::scc" = type { ptr, i8, i8, i32, i32, %"class.sat::big" }
%"class.sat::big" = type { ptr, i32, %class.vector.32, %class.svector.18, %class.svector.33, %class.svector.33, %class.svector, %class.svector, i8, i8, %class.vector.32 }
%class.svector.33 = type { %class.vector.34 }
%class.vector.34 = type { ptr }
%class.vector.32 = type { ptr }
%"class.sat::probing" = type { ptr, i32, %"class.sat::literal_set", %class.svector, i32, i8, i32, i8, i8, i64, i32, %class.vector.35, %class.svector.36, %"class.sat::big" }
%class.vector.35 = type { ptr }
%"class.sat::mus" = type <{ ptr, %class.svector, %class.svector, i8, [7 x i8], %class.svector.15, i32, [4 x i8] }>
%"class.sat::justification" = type <{ i32, [4 x i8], i64, i32, [4 x i8] }>
%class.ptr_vector.24 = type { %class.vector.25 }
%class.vector.25 = type { ptr }
%class.vector.38 = type { ptr }
%class.svector.15 = type { %class.vector.16 }
%class.vector.16 = type { ptr }
%class.svector.39 = type { %class.vector.40 }
%class.vector.40 = type { ptr }
%class.svector.18 = type { %class.vector.19 }
%class.vector.19 = type { ptr }
%"struct.sat::backoff" = type { i32, i32, i32, i32, i32 }
%class.var_queue = type { %class.heap }
%class.heap = type { %"struct.var_queue<svector<unsigned int>>::lt", %class.svector.33, %class.svector.33 }
%"struct.var_queue<svector<unsigned int>>::lt" = type { ptr }
%class.ema = type { double, double, double, i32, i32 }
%class.svector.30 = type { %class.vector.31 }
%class.vector.31 = type { ptr }
%"class.std::__cxx11::basic_string" = type { %"struct.std::__cxx11::basic_string<char>::_Alloc_hider", i64, %union.anon }
%"struct.std::__cxx11::basic_string<char>::_Alloc_hider" = type { ptr }
%union.anon = type { i64, [8 x i8] }
%class.visit_helper = type { %class.svector.8, i32, i32 }
%class.svector.43 = type { %class.vector.44 }
%class.vector.44 = type { ptr }
%class.scoped_limit_trail = type { %class.svector.8, i32, i32 }
%class.stopwatch = type <{ %"class.std::chrono::time_point", %"class.std::chrono::duration", i8, [7 x i8] }>
%"class.std::chrono::time_point" = type { %"class.std::chrono::duration" }
%"class.std::chrono::duration" = type { i64 }
%"struct.sat::no_drat_params" = type { %class.params_ref }
%class.scoped_ptr.45 = type { ptr }
%"class.sat::literal_set" = type { %class.tracked_uint_set }
%class.statistics = type { %class.svector.46, %class.svector.48 }
%class.svector.46 = type { %class.vector.47 }
%class.vector.47 = type { ptr }
%class.svector.48 = type { %class.vector.49 }
%class.vector.49 = type { ptr }
%class.svector.41 = type { %class.vector.42 }
%class.vector.42 = type { ptr }
%class.svector.28 = type { %class.vector.29 }
%class.vector.29 = type { ptr }
%class.svector.8 = type { %class.vector.9 }
%class.vector.9 = type { ptr }
%class.approx_set_tpl = type { i32 }
%class.vector.14 = type { ptr }
%class.svector.36 = type { %class.vector.37 }
%class.vector.37 = type { ptr }
%class.u_map = type { %class.map }
%class.map = type { %class.table2map }
%class.table2map = type { %class.core_hashtable }
%class.core_hashtable = type <{ ptr, i32, i32, i32, [4 x i8] }>
%"class.std::ios_base" = type { ptr, i64, i64, i32, i32, i32, ptr, %"struct.std::ios_base::_Words", [8 x %"struct.std::ios_base::_Words"], i32, ptr, %"class.std::locale" }
%"struct.std::ios_base::_Words" = type { ptr, i64 }
%"class.std::locale" = type { ptr }

@.str.1 = private unnamed_addr constant [3 x i8] c")\0A\00", align 1
@.str.2 = private unnamed_addr constant [25 x i8] c"(sat-asymm-branch :elim \00", align 1

; Function Attrs: inlinehint mustprogress nounwind uwtable
define linkonce_odr noundef i32 @_ZStorSt12_Ios_IostateS_(i32 noundef %0, i32 noundef %1) #10 comdat {
  %3 = alloca i32, align 4
  %4 = alloca i32, align 4
  store i32 %0, ptr %3, align 4, !tbaa !404
  store i32 %1, ptr %4, align 4, !tbaa !404
  %5 = load i32, ptr %3, align 4, !tbaa !404
  %6 = load i32, ptr %4, align 4, !tbaa !404
  %7 = or i32 %5, %6
  ret i32 %7
}

; Function Attrs: mustprogress nounwind uwtable
define available_externally noundef i32 @_ZNKSt9basic_iosIcSt11char_traitsIcEE7rdstateEv(ptr noundef nonnull align 8 dereferenceable(264) %0) #5 align 2 {
  %2 = alloca ptr, align 8
  store ptr %0, ptr %2, align 8, !tbaa !402
  %3 = load ptr, ptr %2, align 8
  %4 = getelementptr inbounds nuw %"class.std::ios_base", ptr %3, i32 0, i32 5
  %5 = load i32, ptr %4, align 8, !tbaa !405
  ret i32 %5
}

; Function Attrs: mustprogress nounwind uwtable
define linkonce_odr hidden noundef i64 @_ZNSt11char_traitsIcE6lengthEPKc(ptr noundef %0) #5 comdat align 2 {
  %2 = alloca ptr, align 8
  store ptr %0, ptr %2, align 8, !tbaa !207
  %3 = load ptr, ptr %2, align 8, !tbaa !207
  %4 = call i64 @strlen(ptr noundef %3) #3
  ret i64 %4
}

; Function Attrs: mustprogress uwtable
define available_externally void @_ZNSt9basic_iosIcSt11char_traitsIcEE8setstateESt12_Ios_Iostate(ptr noundef nonnull align 8 dereferenceable(264) %0, i32 noundef %1) #4 align 2 {
  %3 = alloca ptr, align 8
  %4 = alloca i32, align 4
  store ptr %0, ptr %3, align 8, !tbaa !402
  store i32 %1, ptr %4, align 4, !tbaa !404
  %5 = load ptr, ptr %3, align 8
  %6 = call noundef i32 @_ZNKSt9basic_iosIcSt11char_traitsIcEE7rdstateEv(ptr noundef nonnull align 8 dereferenceable(264) %5)
  %7 = load i32, ptr %4, align 4, !tbaa !404
  %8 = call noundef i32 @_ZStorSt12_Ios_IostateS_(i32 noundef %6, i32 noundef %7)
  call void @_ZNSt9basic_iosIcSt11char_traitsIcEE5clearESt12_Ios_Iostate(ptr noundef nonnull align 8 dereferenceable(264) %5, i32 noundef %8)
  ret void
}

; Function Attrs: mustprogress uwtable
define available_externally noundef nonnull align 8 dereferenceable(8) ptr @_ZNSolsEj(ptr noundef nonnull align 8 dereferenceable(8) %0, i32 noundef %1) #4 align 2 {
  %3 = alloca ptr, align 8
  %4 = alloca i32, align 4
  store ptr %0, ptr %3, align 8, !tbaa !206
  store i32 %1, ptr %4, align 4, !tbaa !30
  %5 = load ptr, ptr %3, align 8
  %6 = load i32, ptr %4, align 4, !tbaa !30
  %7 = zext i32 %6 to i64
  %8 = call noundef nonnull align 8 dereferenceable(8) ptr @_ZNSo9_M_insertImEERSoT_(ptr noundef nonnull align 8 dereferenceable(8) %5, i64 noundef %7)
  ret ptr %8
}

; Function Attrs: inlinehint mustprogress uwtable
define available_externally noundef nonnull align 8 dereferenceable(8) ptr @_ZStlsISt11char_traitsIcEERSt13basic_ostreamIcT_ES5_PKc(ptr noundef nonnull align 8 dereferenceable(8) %0, ptr noundef %1) #7 {
  %3 = alloca ptr, align 8
  %4 = alloca ptr, align 8
  store ptr %0, ptr %3, align 8, !tbaa !206
  store ptr %1, ptr %4, align 8, !tbaa !207
  %5 = load ptr, ptr %4, align 8, !tbaa !207
  %6 = icmp ne ptr %5, null
  br i1 %6, label %13, label %7

7:                                                ; preds = %2
  %8 = load ptr, ptr %3, align 8, !tbaa !206
  %9 = load ptr, ptr %8, align 8, !tbaa !208
  %10 = getelementptr i8, ptr %9, i64 -24
  %11 = load i64, ptr %10, align 8
  %12 = getelementptr inbounds i8, ptr %8, i64 %11
  call void @_ZNSt9basic_iosIcSt11char_traitsIcEE8setstateESt12_Ios_Iostate(ptr noundef nonnull align 8 dereferenceable(264) %12, i32 noundef 1)
  br label %19

13:                                               ; preds = %2
  %14 = load ptr, ptr %3, align 8, !tbaa !206
  %15 = load ptr, ptr %4, align 8, !tbaa !207
  %16 = load ptr, ptr %4, align 8, !tbaa !207
  %17 = call noundef i64 @_ZNSt11char_traitsIcE6lengthEPKc(ptr noundef %16)
  %18 = call noundef nonnull align 8 dereferenceable(8) ptr @_ZSt16__ostream_insertIcSt11char_traitsIcEERSt13basic_ostreamIT_T0_ES6_PKS3_l(ptr noundef nonnull align 8 dereferenceable(8) %14, ptr noundef %15, i64 noundef %17)
  br label %19

19:                                               ; preds = %13, %7
  %20 = load ptr, ptr %3, align 8, !tbaa !206
  ret ptr %20
}

; Function Attrs: mustprogress uwtable
define hidden noundef zeroext i1 @_ZN3sat12asymm_branch7processEb(ptr noundef nonnull align 8 dereferenceable(128) %0, i1 noundef zeroext %1) #4 align 2 {
  %3 = alloca ptr, align 8
  %4 = alloca i8, align 1
  %5 = alloca i32, align 4
  %6 = alloca i32, align 4
  store ptr %0, ptr %3, align 8, !tbaa !3
  %7 = zext i1 %1 to i8
  store i8 %7, ptr %4, align 1, !tbaa !52
  %8 = load ptr, ptr %3, align 8
  call void @llvm.lifetime.start.p0(i64 4, ptr %5) #3
  %9 = getelementptr inbounds nuw %"class.sat::asymm_branch", ptr %8, i32 0, i32 13
  %10 = load i32, ptr %9, align 4, !tbaa !43
  store i32 %10, ptr %5, align 4, !tbaa !30
  call void @llvm.lifetime.start.p0(i64 4, ptr %6) #3
  %11 = getelementptr inbounds nuw %"class.sat::asymm_branch", ptr %8, i32 0, i32 12
  %12 = load i32, ptr %11, align 8, !tbaa !42
  store i32 %12, ptr %6, align 4, !tbaa !30
  %13 = getelementptr inbounds nuw %"class.sat::asymm_branch", ptr %8, i32 0, i32 0
  %14 = load ptr, ptr %13, align 8, !tbaa !51
  %15 = getelementptr inbounds nuw %"class.sat::solver", ptr %14, i32 0, i32 28
  call void @_ZN3sat12asymm_branch7processEPNS_3bigER10ptr_vectorINS_6clauseEE(ptr noundef nonnull align 8 dereferenceable(128) %8, ptr noundef null, ptr noundef nonnull align 8 dereferenceable(8) %15)
  %16 = load i8, ptr %4, align 1, !tbaa !52, !range !53, !noundef !54
  %17 = trunc i8 %16 to i1
  br i1 %17, label %18, label %22

18:                                               ; preds = %2
  %19 = getelementptr inbounds nuw %"class.sat::asymm_branch", ptr %8, i32 0, i32 0
  %20 = load ptr, ptr %19, align 8, !tbaa !51
  %21 = getelementptr inbounds nuw %"class.sat::solver", ptr %20, i32 0, i32 29
  call void @_ZN3sat12asymm_branch7processEPNS_3bigER10ptr_vectorINS_6clauseEE(ptr noundef nonnull align 8 dereferenceable(128) %8, ptr noundef null, ptr noundef nonnull align 8 dereferenceable(8) %21)
  br label %22

22:                                               ; preds = %18, %2
  %23 = getelementptr inbounds nuw %"class.sat::asymm_branch", ptr %8, i32 0, i32 0
  %24 = load ptr, ptr %23, align 8, !tbaa !51
  %25 = call noundef zeroext i1 @_ZN3sat6solver9propagateEb(ptr noundef nonnull align 8 dereferenceable(4264) %24, i1 noundef zeroext false)
  %26 = call noundef i32 @_Z19get_verbosity_levelv()
  %27 = icmp uge i32 %26, 4
  br i1 %27, label %28, label %61

28:                                               ; preds = %22
  %29 = call noundef zeroext i1 @_Z11is_threadedv()
  br i1 %29, label %30, label %45

30:                                               ; preds = %28
  call void @_Z12verbose_lockv()
  %31 = getelementptr inbounds nuw %"class.sat::asymm_branch", ptr %8, i32 0, i32 13
  %32 = load i32, ptr %31, align 4, !tbaa !43
  %33 = load i32, ptr %5, align 4, !tbaa !30
  %34 = icmp ugt i32 %32, %33
  br i1 %34, label %35, label %44

35:                                               ; preds = %30
  %36 = call noundef nonnull align 8 dereferenceable(8) ptr @_Z14verbose_streamv()
  %37 = call noundef nonnull align 8 dereferenceable(8) ptr @_ZStlsISt11char_traitsIcEERSt13basic_ostreamIcT_ES5_PKc(ptr noundef nonnull align 8 dereferenceable(8) %36, ptr noundef @.str.2)
  %38 = getelementptr inbounds nuw %"class.sat::asymm_branch", ptr %8, i32 0, i32 13
  %39 = load i32, ptr %38, align 4, !tbaa !43
  %40 = load i32, ptr %5, align 4, !tbaa !30
  %41 = sub i32 %39, %40
  %42 = call noundef nonnull align 8 dereferenceable(8) ptr @_ZNSolsEj(ptr noundef nonnull align 8 dereferenceable(8) %37, i32 noundef %41)
  %43 = call noundef nonnull align 8 dereferenceable(8) ptr @_ZStlsISt11char_traitsIcEERSt13basic_ostreamIcT_ES5_PKc(ptr noundef nonnull align 8 dereferenceable(8) %42, ptr noundef @.str.1)
  br label %44

44:                                               ; preds = %35, %30
  call void @_Z14verbose_unlockv()
  br label %60

45:                                               ; preds = %28
  %46 = getelementptr inbounds nuw %"class.sat::asymm_branch", ptr %8, i32 0, i32 13
  %47 = load i32, ptr %46, align 4, !tbaa !43
  %48 = load i32, ptr %5, align 4, !tbaa !30
  %49 = icmp ugt i32 %47, %48
  br i1 %49, label %50, label %59

50:                                               ; preds = %45
  %51 = call noundef nonnull align 8 dereferenceable(8) ptr @_Z14verbose_streamv()
  %52 = call noundef nonnull align 8 dereferenceable(8) ptr @_ZStlsISt11char_traitsIcEERSt13basic_ostreamIcT_ES5_PKc(ptr noundef nonnull align 8 dereferenceable(8) %51, ptr noundef @.str.2)
  %53 = getelementptr inbounds nuw %"class.sat::asymm_branch", ptr %8, i32 0, i32 13
  %54 = load i32, ptr %53, align 4, !tbaa !43
  %55 = load i32, ptr %5, align 4, !tbaa !30
  %56 = sub i32 %54, %55
  %57 = call noundef nonnull align 8 dereferenceable(8) ptr @_ZNSolsEj(ptr noundef nonnull align 8 dereferenceable(8) %52, i32 noundef %56)
  %58 = call noundef nonnull align 8 dereferenceable(8) ptr @_ZStlsISt11char_traitsIcEERSt13basic_ostreamIcT_ES5_PKc(ptr noundef nonnull align 8 dereferenceable(8) %57, ptr noundef @.str.1)
  br label %59

59:                                               ; preds = %50, %45
  br label %60

60:                                               ; preds = %59, %44
  br label %61

61:                                               ; preds = %60, %22
  %62 = getelementptr inbounds nuw %"class.sat::asymm_branch", ptr %8, i32 0, i32 12
  %63 = load i32, ptr %62, align 8, !tbaa !42
  %64 = load i32, ptr %6, align 4, !tbaa !30
  %65 = icmp ugt i32 %63, %64
  call void @llvm.lifetime.end.p0(i64 4, ptr %6) #3
  call void @llvm.lifetime.end.p0(i64 4, ptr %5) #3
  ret i1 %65
}