; Function Attrs: mustprogress uwtable
define hidden noundef zeroext i1 @_ZN3sat12asymm_branch7processEb(ptr noundef nonnull align 8 dereferenceable(128) %0, i1 noundef zeroext %1) local_unnamed_addr #3 align 2 {
  %3 = getelementptr inbounds nuw i8, ptr %0, i64 68
  %4 = load i32, ptr %3, align 4, !tbaa !24
  %5 = getelementptr inbounds nuw i8, ptr %0, i64 64
  %6 = load i32, ptr %5, align 8, !tbaa !23
  %7 = load ptr, ptr %0, align 8, !tbaa !40
  %8 = getelementptr inbounds nuw i8, ptr %7, i64 3224
  tail call void @_ZN3sat12asymm_branch7processEPNS_3bigER10ptr_vectorINS_6clauseEE(ptr noundef nonnull align 8 dereferenceable(128) %0, ptr noundef null, ptr noundef nonnull align 8 dereferenceable(8) %8)
  br i1 %1, label %9, label %12

9:                                                ; preds = %2
  %10 = load ptr, ptr %0, align 8, !tbaa !40
  %11 = getelementptr inbounds nuw i8, ptr %10, i64 3232
  tail call void @_ZN3sat12asymm_branch7processEPNS_3bigER10ptr_vectorINS_6clauseEE(ptr noundef nonnull align 8 dereferenceable(128) %0, ptr noundef null, ptr noundef nonnull align 8 dereferenceable(8) %11)
  br label %12

12:                                               ; preds = %9, %2
  %13 = load ptr, ptr %0, align 8, !tbaa !40
  %14 = tail call noundef zeroext i1 @_ZN3sat6solver9propagateEb(ptr noundef nonnull align 8 dereferenceable(4264) %13, i1 noundef zeroext false)
  %15 = tail call noundef i32 @_Z19get_verbosity_levelv()
  %16 = icmp ugt i32 %15, 3
  br i1 %16, label %17, label %42

17:                                               ; preds = %12
  %18 = tail call noundef zeroext i1 @_Z11is_threadedv()
  br i1 %18, label %19, label %31

19:                                               ; preds = %17
  tail call void @_Z12verbose_lockv()
  %20 = load i32, ptr %3, align 4, !tbaa !24
  %21 = icmp ugt i32 %20, %4
  br i1 %21, label %22, label %30

22:                                               ; preds = %19
  %23 = tail call noundef nonnull align 8 dereferenceable(8) ptr @_Z14verbose_streamv()
  %24 = tail call noundef nonnull align 8 dereferenceable(8) ptr @_ZSt16__ostream_insertIcSt11char_traitsIcEERSt13basic_ostreamIT_T0_ES6_PKS3_l(ptr noundef nonnull align 8 dereferenceable(8) %23, ptr noundef nonnull @.str.2, i64 noundef 24)
  %25 = load i32, ptr %3, align 4, !tbaa !24
  %26 = sub i32 %25, %4
  %27 = zext i32 %26 to i64
  %28 = tail call noundef nonnull align 8 dereferenceable(8) ptr @_ZNSo9_M_insertImEERSoT_(ptr noundef nonnull align 8 dereferenceable(8) %23, i64 noundef %27)
  %29 = tail call noundef nonnull align 8 dereferenceable(8) ptr @_ZSt16__ostream_insertIcSt11char_traitsIcEERSt13basic_ostreamIT_T0_ES6_PKS3_l(ptr noundef nonnull align 8 dereferenceable(8) %28, ptr noundef nonnull @.str.1, i64 noundef 2)
  br label %30

30:                                               ; preds = %22, %19
  tail call void @_Z14verbose_unlockv()
  br label %42

31:                                               ; preds = %17
  %32 = load i32, ptr %3, align 4, !tbaa !24
  %33 = icmp ugt i32 %32, %4
  br i1 %33, label %34, label %42

34:                                               ; preds = %31
  %35 = tail call noundef nonnull align 8 dereferenceable(8) ptr @_Z14verbose_streamv()
  %36 = tail call noundef nonnull align 8 dereferenceable(8) ptr @_ZSt16__ostream_insertIcSt11char_traitsIcEERSt13basic_ostreamIT_T0_ES6_PKS3_l(ptr noundef nonnull align 8 dereferenceable(8) %35, ptr noundef nonnull @.str.2, i64 noundef 24)
  %37 = load i32, ptr %3, align 4, !tbaa !24
  %38 = sub i32 %37, %4
  %39 = zext i32 %38 to i64
  %40 = tail call noundef nonnull align 8 dereferenceable(8) ptr @_ZNSo9_M_insertImEERSoT_(ptr noundef nonnull align 8 dereferenceable(8) %35, i64 noundef %39)
  %41 = tail call noundef nonnull align 8 dereferenceable(8) ptr @_ZSt16__ostream_insertIcSt11char_traitsIcEERSt13basic_ostreamIT_T0_ES6_PKS3_l(ptr noundef nonnull align 8 dereferenceable(8) %40, ptr noundef nonnull @.str.1, i64 noundef 2)
  br label %42

42:                                               ; preds = %30, %34, %31, %12
  %43 = load i32, ptr %5, align 8, !tbaa !23
  %44 = icmp ugt i32 %43, %6
  ret i1 %44
}